target datalayout = "e-m:e-p270:32:32-p271:32:32-p272:64:64-i64:64-i128:128-f80:128-n8:16:32:64-S128"
target triple = "x86_64-pc-linux-gnu"

%class.symbol = type { ptr }
%class.obj_hashtable = type { %class.core_hashtable.base, [4 x i8] }
%class.core_hashtable.base = type <{ ptr, i32, i32, i32 }>
%"class.qe::mbi_plugin" = type { ptr, ptr, %class.ref_vector, %class.obj_hashtable, %class.svector, %"class.std::function" }
%class.ref_vector = type { %class.ref_vector_core }
%class.ref_vector_core = type { %class.ref_manager_wrapper, %class.ptr_vector }
%class.ref_manager_wrapper = type { ptr }
%class.ptr_vector = type { %class.vector }
%class.vector = type { ptr }
%class.svector = type { %class.vector.0 }
%class.vector.0 = type { ptr }
%"class.std::function" = type { %"class.std::_Function_base", ptr }
%"class.std::_Function_base" = type { %"union.std::_Any_data", ptr }
%"union.std::_Any_data" = type { %"union.std::_Nocopy_types" }
%"union.std::_Nocopy_types" = type { { i64, i64 } }
%class.core_hashtable = type <{ ptr, i32, i32, i32, [4 x i8] }>
%class.obj_hash_entry = type { ptr }
%class.decl = type { %class.ast, %class.symbol, ptr }
%class.ast = type { i32, i32, i32, i32 }
%class.decl_info = type <{ i32, i32, %class.vector.111, i8, [7 x i8] }>
%class.vector.111 = type { ptr }

; Function Attrs: mustprogress nounwind uwtable
define linkonce_odr hidden noundef zeroext i1 @_ZNK6ptr_eqI9func_declEclEPS0_S2_(ptr noundef nonnull align 1 dereferenceable(1) %0, ptr noundef %1, ptr noundef %2) #8 comdat align 2 {
  %4 = alloca ptr, align 8
  %5 = alloca ptr, align 8
  %6 = alloca ptr, align 8
  store ptr %0, ptr %4, align 8, !tbaa !319
  store ptr %1, ptr %5, align 8, !tbaa !51
  store ptr %2, ptr %6, align 8, !tbaa !51
  %7 = load ptr, ptr %5, align 8, !tbaa !51
  %8 = load ptr, ptr %6, align 8, !tbaa !51
  %9 = icmp eq ptr %7, %8
  ret i1 %9
}

; Function Attrs: mustprogress nounwind uwtable
define linkonce_odr hidden noundef i32 @_ZNK3ast4hashEv(ptr noundef nonnull align 4 dereferenceable(16) %0) #8 comdat align 2 {
  %2 = alloca ptr, align 8
  store ptr %0, ptr %2, align 8, !tbaa !19
  %3 = load ptr, ptr %2, align 8
  %4 = getelementptr inbounds nuw %class.ast, ptr %3, i32 0, i32 3
  %5 = load i32, ptr %4, align 4, !tbaa !383
  ret i32 %5
}

; Function Attrs: mustprogress nounwind uwtable
define linkonce_odr hidden noundef i32 @_ZNK12obj_ptr_hashI9func_declEclEPS0_(ptr noundef nonnull align 1 dereferenceable(1) %0, ptr noundef %1) #8 comdat align 2 {
  %3 = alloca ptr, align 8
  %4 = alloca ptr, align 8
  store ptr %0, ptr %3, align 8, !tbaa !317
  store ptr %1, ptr %4, align 8, !tbaa !51
  %5 = load ptr, ptr %4, align 8, !tbaa !51
  %6 = call noundef i32 @_ZNK3ast4hashEv(ptr noundef nonnull align 4 dereferenceable(16) %5)
  ret i32 %6
}

; Function Attrs: mustprogress nounwind uwtable
define linkonce_odr hidden noundef zeroext i1 @_ZNK14obj_hash_entryI9func_declE7is_freeEv(ptr noundef nonnull align 8 dereferenceable(8) %0) #8 comdat align 2 {
  %2 = alloca ptr, align 8
  store ptr %0, ptr %2, align 8, !tbaa !32
  %3 = load ptr, ptr %2, align 8
  %4 = getelementptr inbounds nuw %class.obj_hash_entry, ptr %3, i32 0, i32 0
  %5 = load ptr, ptr %4, align 8, !tbaa !322
  %6 = icmp eq ptr %5, null
  ret i1 %6
}

; Function Attrs: mustprogress uwtable
define linkonce_odr hidden noundef zeroext i1 @_ZNK14core_hashtableI14obj_hash_entryI9func_declE12obj_ptr_hashIS1_E6ptr_eqIS1_EE6equalsERKPS1_SA_(ptr noundef nonnull align 8 dereferenceable(20) %0, ptr noundef nonnull align 8 dereferenceable(8) %1, ptr noundef nonnull align 8 dereferenceable(8) %2) #4 comdat align 2 {
  %4 = alloca ptr, align 8
  %5 = alloca ptr, align 8
  %6 = alloca ptr, align 8
  store ptr %0, ptr %4, align 8, !tbaa !23
  store ptr %1, ptr %5, align 8, !tbaa !61
  store ptr %2, ptr %6, align 8, !tbaa !61
  %7 = load ptr, ptr %4, align 8
  %8 = load ptr, ptr %5, align 8, !tbaa !61
  %9 = load ptr, ptr %8, align 8, !tbaa !51
  %10 = load ptr, ptr %6, align 8, !tbaa !61
  %11 = load ptr, ptr %10, align 8, !tbaa !51
  %12 = call noundef zeroext i1 @_ZNK6ptr_eqI9func_declEclEPS0_S2_(ptr noundef nonnull align 1 dereferenceable(1) %7, ptr noundef %9, ptr noundef %11)
  ret i1 %12
}

; Function Attrs: mustprogress nounwind uwtable
define linkonce_odr hidden noundef nonnull align 8 dereferenceable(8) ptr @_ZN14obj_hash_entryI9func_declE8get_dataEv(ptr noundef nonnull align 8 dereferenceable(8) %0) #8 comdat align 2 {
  %2 = alloca ptr, align 8
  store ptr %0, ptr %2, align 8, !tbaa !32
  %3 = load ptr, ptr %2, align 8
  %4 = getelementptr inbounds nuw %class.obj_hash_entry, ptr %3, i32 0, i32 0
  ret ptr %4
}

; Function Attrs: mustprogress nounwind uwtable
define linkonce_odr hidden noundef i32 @_ZNK14obj_hash_entryI9func_declE8get_hashEv(ptr noundef nonnull align 8 dereferenceable(8) %0) #8 comdat align 2 {
  %2 = alloca ptr, align 8
  store ptr %0, ptr %2, align 8, !tbaa !32
  %3 = load ptr, ptr %2, align 8
  %4 = getelementptr inbounds nuw %class.obj_hash_entry, ptr %3, i32 0, i32 0
  %5 = load ptr, ptr %4, align 8, !tbaa !322
  %6 = call noundef i32 @_ZNK3ast4hashEv(ptr noundef nonnull align 4 dereferenceable(16) %5)
  ret i32 %6
}

; Function Attrs: mustprogress nounwind uwtable
define linkonce_odr hidden noundef zeroext i1 @_ZNK14obj_hash_entryI9func_declE7is_usedEv(ptr noundef nonnull align 8 dereferenceable(8) %0) #8 comdat align 2 {
  %2 = alloca ptr, align 8
  store ptr %0, ptr %2, align 8, !tbaa !32
  %3 = load ptr, ptr %2, align 8
  %4 = getelementptr inbounds nuw %class.obj_hash_entry, ptr %3, i32 0, i32 0
  %5 = load ptr, ptr %4, align 8, !tbaa !322
  %6 = icmp ne ptr %5, null
  br i1 %6, label %7, label %11

7:                                                ; preds = %1
  %8 = getelementptr inbounds nuw %class.obj_hash_entry, ptr %3, i32 0, i32 0
  %9 = load ptr, ptr %8, align 8, !tbaa !322
  %10 = icmp ne ptr %9, inttoptr (i64 1 to ptr)
  br label %11

11:                                               ; preds = %7, %1
  %12 = phi i1 [ false, %1 ], [ %10, %7 ]
  ret i1 %12
}

; Function Attrs: mustprogress uwtable
define linkonce_odr hidden noundef i32 @_ZNK14core_hashtableI14obj_hash_entryI9func_declE12obj_ptr_hashIS1_E6ptr_eqIS1_EE8get_hashERKPS1_(ptr noundef nonnull align 8 dereferenceable(20) %0, ptr noundef nonnull align 8 dereferenceable(8) %1) #4 comdat align 2 {
  %3 = alloca ptr, align 8
  %4 = alloca ptr, align 8
  store ptr %0, ptr %3, align 8, !tbaa !23
  store ptr %1, ptr %4, align 8, !tbaa !61
  %5 = load ptr, ptr %3, align 8
  %6 = load ptr, ptr %4, align 8, !tbaa !61
  %7 = load ptr, ptr %6, align 8, !tbaa !51
  %8 = call noundef i32 @_ZNK12obj_ptr_hashI9func_declEclEPS0_(ptr noundef nonnull align 1 dereferenceable(1) %5, ptr noundef %7)
  ret i32 %8
}

; Function Attrs: mustprogress uwtable
define linkonce_odr hidden noundef ptr @_ZNK14core_hashtableI14obj_hash_entryI9func_declE12obj_ptr_hashIS1_E6ptr_eqIS1_EE9find_coreERKPS1_(ptr noundef nonnull align 8 dereferenceable(20) %0, ptr noundef nonnull align 8 dereferenceable(8) %1) #4 comdat align 2 {
  %3 = alloca ptr, align 8
  %4 = alloca ptr, align 8
  %5 = alloca ptr, align 8
  %6 = alloca i32, align 4
  %7 = alloca i32, align 4
  %8 = alloca i32, align 4
  %9 = alloca ptr, align 8
  %10 = alloca ptr, align 8
  %11 = alloca ptr, align 8
  %12 = alloca i32, align 4
  store ptr %0, ptr %4, align 8, !tbaa !23
  store ptr %1, ptr %5, align 8, !tbaa !61
  %13 = load ptr, ptr %4, align 8
  call void @llvm.lifetime.start.p0(i64 4, ptr %6) #3
  %14 = load ptr, ptr %5, align 8, !tbaa !61
  %15 = call noundef i32 @_ZNK14core_hashtableI14obj_hash_entryI9func_declE12obj_ptr_hashIS1_E6ptr_eqIS1_EE8get_hashERKPS1_(ptr noundef nonnull align 8 dereferenceable(20) %13, ptr noundef nonnull align 8 dereferenceable(8) %14)
  store i32 %15, ptr %6, align 4, !tbaa !30
  call void @llvm.lifetime.start.p0(i64 4, ptr %7) #3
  %16 = getelementptr inbounds nuw %class.core_hashtable, ptr %13, i32 0, i32 1
  %17 = load i32, ptr %16, align 8, !tbaa !33
  %18 = sub i32 %17, 1
  store i32 %18, ptr %7, align 4, !tbaa !30
  call void @llvm.lifetime.start.p0(i64 4, ptr %8) #3
  %19 = load i32, ptr %6, align 4, !tbaa !30
  %20 = load i32, ptr %7, align 4, !tbaa !30
  %21 = and i32 %19, %20
  store i32 %21, ptr %8, align 4, !tbaa !30
  call void @llvm.lifetime.start.p0(i64 8, ptr %9) #3
  %22 = getelementptr inbounds nuw %class.core_hashtable, ptr %13, i32 0, i32 0
  %23 = load ptr, ptr %22, align 8, !tbaa !31
  %24 = load i32, ptr %8, align 4, !tbaa !30
  %25 = zext i32 %24 to i64
  %26 = getelementptr inbounds nuw %class.obj_hash_entry, ptr %23, i64 %25
  store ptr %26, ptr %9, align 8, !tbaa !32
  call void @llvm.lifetime.start.p0(i64 8, ptr %10) #3
  %27 = getelementptr inbounds nuw %class.core_hashtable, ptr %13, i32 0, i32 0
  %28 = load ptr, ptr %27, align 8, !tbaa !31
  %29 = getelementptr inbounds nuw %class.core_hashtable, ptr %13, i32 0, i32 1
  %30 = load i32, ptr %29, align 8, !tbaa !33
  %31 = zext i32 %30 to i64
  %32 = getelementptr inbounds nuw %class.obj_hash_entry, ptr %28, i64 %31
  store ptr %32, ptr %10, align 8, !tbaa !32
  call void @llvm.lifetime.start.p0(i64 8, ptr %11) #3
  %33 = load ptr, ptr %9, align 8, !tbaa !32
  store ptr %33, ptr %11, align 8, !tbaa !32
  br label %34

34:                                               ; preds = %61, %2
  %35 = load ptr, ptr %11, align 8, !tbaa !32
  %36 = load ptr, ptr %10, align 8, !tbaa !32
  %37 = icmp ne ptr %35, %36
  br i1 %37, label %38, label %64

38:                                               ; preds = %34
  %39 = load ptr, ptr %11, align 8, !tbaa !32
  %40 = call noundef zeroext i1 @_ZNK14obj_hash_entryI9func_declE7is_usedEv(ptr noundef nonnull align 8 dereferenceable(8) %39)
  br i1 %40, label %41, label %54

41:                                               ; preds = %38
  %42 = load ptr, ptr %11, align 8, !tbaa !32
  %43 = call noundef i32 @_ZNK14obj_hash_entryI9func_declE8get_hashEv(ptr noundef nonnull align 8 dereferenceable(8) %42)
  %44 = load i32, ptr %6, align 4, !tbaa !30
  %45 = icmp eq i32 %43, %44
  br i1 %45, label %46, label %53

46:                                               ; preds = %41
  %47 = load ptr, ptr %11, align 8, !tbaa !32
  %48 = call noundef nonnull align 8 dereferenceable(8) ptr @_ZN14obj_hash_entryI9func_declE8get_dataEv(ptr noundef nonnull align 8 dereferenceable(8) %47)
  %49 = load ptr, ptr %5, align 8, !tbaa !61
  %50 = call noundef zeroext i1 @_ZNK14core_hashtableI14obj_hash_entryI9func_declE12obj_ptr_hashIS1_E6ptr_eqIS1_EE6equalsERKPS1_SA_(ptr noundef nonnull align 8 dereferenceable(20) %13, ptr noundef nonnull align 8 dereferenceable(8) %48, ptr noundef nonnull align 8 dereferenceable(8) %49)
  br i1 %50, label %51, label %53

51:                                               ; preds = %46
  %52 = load ptr, ptr %11, align 8, !tbaa !32
  store ptr %52, ptr %3, align 8
  store i32 1, ptr %12, align 4
  br label %98

53:                                               ; preds = %46, %41
  br label %60

54:                                               ; preds = %38
  %55 = load ptr, ptr %11, align 8, !tbaa !32
  %56 = call noundef zeroext i1 @_ZNK14obj_hash_entryI9func_declE7is_freeEv(ptr noundef nonnull align 8 dereferenceable(8) %55)
  br i1 %56, label %57, label %58

57:                                               ; preds = %54
  store ptr null, ptr %3, align 8
  store i32 1, ptr %12, align 4
  br label %98

58:                                               ; preds = %54
  br label %59

59:                                               ; preds = %58
  br label %60

60:                                               ; preds = %59, %53
  br label %61

61:                                               ; preds = %60
  %62 = load ptr, ptr %11, align 8, !tbaa !32
  %63 = getelementptr inbounds nuw %class.obj_hash_entry, ptr %62, i32 1
  store ptr %63, ptr %11, align 8, !tbaa !32
  br label %34, !llvm.loop !469

64:                                               ; preds = %34
  %65 = getelementptr inbounds nuw %class.core_hashtable, ptr %13, i32 0, i32 0
  %66 = load ptr, ptr %65, align 8, !tbaa !31
  store ptr %66, ptr %11, align 8, !tbaa !32
  br label %67

67:                                               ; preds = %94, %64
  %68 = load ptr, ptr %11, align 8, !tbaa !32
  %69 = load ptr, ptr %9, align 8, !tbaa !32
  %70 = icmp ne ptr %68, %69
  br i1 %70, label %71, label %97

71:                                               ; preds = %67
  %72 = load ptr, ptr %11, align 8, !tbaa !32
  %73 = call noundef zeroext i1 @_ZNK14obj_hash_entryI9func_declE7is_usedEv(ptr noundef nonnull align 8 dereferenceable(8) %72)
  br i1 %73, label %74, label %87

74:                                               ; preds = %71
  %75 = load ptr, ptr %11, align 8, !tbaa !32
  %76 = call noundef i32 @_ZNK14obj_hash_entryI9func_declE8get_hashEv(ptr noundef nonnull align 8 dereferenceable(8) %75)
  %77 = load i32, ptr %6, align 4, !tbaa !30
  %78 = icmp eq i32 %76, %77
  br i1 %78, label %79, label %86

79:                                               ; preds = %74
  %80 = load ptr, ptr %11, align 8, !tbaa !32
  %81 = call noundef nonnull align 8 dereferenceable(8) ptr @_ZN14obj_hash_entryI9func_declE8get_dataEv(ptr noundef nonnull align 8 dereferenceable(8) %80)
  %82 = load ptr, ptr %5, align 8, !tbaa !61
  %83 = call noundef zeroext i1 @_ZNK14core_hashtableI14obj_hash_entryI9func_declE12obj_ptr_hashIS1_E6ptr_eqIS1_EE6equalsERKPS1_SA_(ptr noundef nonnull align 8 dereferenceable(20) %13, ptr noundef nonnull align 8 dereferenceable(8) %81, ptr noundef nonnull align 8 dereferenceable(8) %82)
  br i1 %83, label %84, label %86

84:                                               ; preds = %79
  %85 = load ptr, ptr %11, align 8, !tbaa !32
  store ptr %85, ptr %3, align 8
  store i32 1, ptr %12, align 4
  br label %98

86:                                               ; preds = %79, %74
  br label %93

87:                                               ; preds = %71
  %88 = load ptr, ptr %11, align 8, !tbaa !32
  %89 = call noundef zeroext i1 @_ZNK14obj_hash_entryI9func_declE7is_freeEv(ptr noundef nonnull align 8 dereferenceable(8) %88)
  br i1 %89, label %90, label %91

90:                                               ; preds = %87
  store ptr null, ptr %3, align 8
  store i32 1, ptr %12, align 4
  br label %98

91:                                               ; preds = %87
  br label %92

92:                                               ; preds = %91
  br label %93

93:                                               ; preds = %92, %86
  br label %94

94:                                               ; preds = %93
  %95 = load ptr, ptr %11, align 8, !tbaa !32
  %96 = getelementptr inbounds nuw %class.obj_hash_entry, ptr %95, i32 1
  store ptr %96, ptr %11, align 8, !tbaa !32
  br label %67, !llvm.loop !470

97:                                               ; preds = %67
  store ptr null, ptr %3, align 8
  store i32 1, ptr %12, align 4
  br label %98

98:                                               ; preds = %97, %90, %84, %57, %51
  call void @llvm.lifetime.end.p0(i64 8, ptr %11) #3
  call void @llvm.lifetime.end.p0(i64 8, ptr %10) #3
  call void @llvm.lifetime.end.p0(i64 8, ptr %9) #3
  call void @llvm.lifetime.end.p0(i64 4, ptr %8) #3
  call void @llvm.lifetime.end.p0(i64 4, ptr %7) #3
  call void @llvm.lifetime.end.p0(i64 4, ptr %6) #3
  %99 = load ptr, ptr %3, align 8
  ret ptr %99
}

; Function Attrs: mustprogress nounwind uwtable
define linkonce_odr hidden noundef i32 @_ZNK9decl_info13get_family_idEv(ptr noundef nonnull align 8 dereferenceable(17) %0) #8 comdat align 2 {
  %2 = alloca ptr, align 8
  store ptr %0, ptr %2, align 8, !tbaa !333
  %3 = load ptr, ptr %2, align 8
  %4 = getelementptr inbounds nuw %class.decl_info, ptr %3, i32 0, i32 0
  %5 = load i32, ptr %4, align 8, !tbaa !334
  ret i32 %5
}

; Function Attrs: mustprogress uwtable
define linkonce_odr hidden noundef zeroext i1 @_ZNK14core_hashtableI14obj_hash_entryI9func_declE12obj_ptr_hashIS1_E6ptr_eqIS1_EE8containsERKPS1_(ptr noundef nonnull align 8 dereferenceable(20) %0, ptr noundef nonnull align 8 dereferenceable(8) %1) #4 comdat align 2 {
  %3 = alloca ptr, align 8
  %4 = alloca ptr, align 8
  store ptr %0, ptr %3, align 8, !tbaa !23
  store ptr %1, ptr %4, align 8, !tbaa !61
  %5 = load ptr, ptr %3, align 8
  %6 = load ptr, ptr %4, align 8, !tbaa !61
  %7 = call noundef ptr @_ZNK14core_hashtableI14obj_hash_entryI9func_declE12obj_ptr_hashIS1_E6ptr_eqIS1_EE9find_coreERKPS1_(ptr noundef nonnull align 8 dereferenceable(20) %5, ptr noundef nonnull align 8 dereferenceable(8) %6)
  %8 = icmp ne ptr %7, null
  ret i1 %8
}

; Function Attrs: mustprogress uwtable
define linkonce_odr hidden noundef i32 @_ZNK4decl13get_family_idEv(ptr noundef nonnull align 8 dereferenceable(32) %0) #4 comdat align 2 {
  %2 = alloca ptr, align 8
  store ptr %0, ptr %2, align 8, !tbaa !53
  %3 = load ptr, ptr %2, align 8
  %4 = getelementptr inbounds nuw %class.decl, ptr %3, i32 0, i32 2
  %5 = load ptr, ptr %4, align 8, !tbaa !55
  %6 = icmp eq ptr %5, null
  br i1 %6, label %7, label %8

7:                                                ; preds = %1
  br label %12

8:                                                ; preds = %1
  %9 = getelementptr inbounds nuw %class.decl, ptr %3, i32 0, i32 2
  %10 = load ptr, ptr %9, align 8, !tbaa !55
  %11 = call noundef i32 @_ZNK9decl_info13get_family_idEv(ptr noundef nonnull align 8 dereferenceable(17) %10)
  br label %12

12:                                               ; preds = %8, %7
  %13 = phi i32 [ -1, %7 ], [ %11, %8 ]
  ret i32 %13
}

; Function Attrs: mustprogress uwtable
define hidden noundef zeroext i1 @_ZN2qe10mbi_plugin9is_sharedEP9func_decl(ptr noundef nonnull align 8 dereferenceable(96) %0, ptr noundef %1) #4 align 2 {
  %3 = alloca ptr, align 8
  %4 = alloca ptr, align 8
  store ptr %0, ptr %3, align 8, !tbaa !3
  store ptr %1, ptr %4, align 8, !tbaa !51
  %5 = load ptr, ptr %3, align 8
  %6 = load ptr, ptr %4, align 8, !tbaa !51
  %7 = call noundef i32 @_ZNK4decl13get_family_idEv(ptr noundef nonnull align 8 dereferenceable(32) %6)
  %8 = icmp ne i32 %7, -1
  br i1 %8, label %12, label %9

9:                                                ; preds = %2
  %10 = getelementptr inbounds nuw %"class.qe::mbi_plugin", ptr %5, i32 0, i32 3
  %11 = call noundef zeroext i1 @_ZNK14core_hashtableI14obj_hash_entryI9func_declE12obj_ptr_hashIS1_E6ptr_eqIS1_EE8containsERKPS1_(ptr noundef nonnull align 8 dereferenceable(20) %10, ptr noundef nonnull align 8 dereferenceable(8) %4)
  br label %12

12:                                               ; preds = %9, %2
  %13 = phi i1 [ true, %2 ], [ %11, %9 ]
  ret i1 %13
}