; Function Attrs: mustprogress nofree norecurse nosync nounwind willreturn memory(read, inaccessiblemem: none) uwtable
define hidden noundef zeroext i1 @_ZN2qe10mbi_plugin9is_sharedEP9func_decl(ptr noundef nonnull readonly align 8 captures(none) dereferenceable(96) %0, ptr noundef readonly captures(address) %1) local_unnamed_addr #7 align 2 {
  %3 = getelementptr inbounds nuw i8, ptr %1, i64 24
  %4 = load ptr, ptr %3, align 8, !tbaa !45
  %5 = icmp eq ptr %4, null
  br i1 %5, label %_ZNK4decl13get_family_idEv.exit.thread, label %_ZNK4decl13get_family_idEv.exit

_ZNK4decl13get_family_idEv.exit:                  ; preds = %2
  %6 = load i32, ptr %4, align 8, !tbaa !50
  %.not = icmp eq i32 %6, -1
  br i1 %.not, label %_ZNK4decl13get_family_idEv.exit.thread, label %_ZNK14core_hashtableI14obj_hash_entryI9func_declE12obj_ptr_hashIS1_E6ptr_eqIS1_EE8containsERKPS1_.exit

_ZNK4decl13get_family_idEv.exit.thread:           ; preds = %2, %_ZNK4decl13get_family_idEv.exit
  %7 = getelementptr inbounds nuw i8, ptr %0, i64 32
  %8 = getelementptr inbounds nuw i8, ptr %1, i64 12
  %9 = load i32, ptr %8, align 4, !tbaa !55
  %10 = getelementptr inbounds nuw i8, ptr %0, i64 40
  %11 = load i32, ptr %10, align 8, !tbaa !13
  %12 = add i32 %11, -1
  %13 = and i32 %12, %9
  %14 = load ptr, ptr %7, align 8, !tbaa !9
  %15 = zext i32 %13 to i64
  %16 = getelementptr inbounds nuw %class.obj_hash_entry, ptr %14, i64 %15
  %17 = zext i32 %11 to i64
  %18 = getelementptr inbounds nuw %class.obj_hash_entry, ptr %14, i64 %17
  %.not35.i.i = icmp eq i32 %13, %11
  br i1 %.not35.i.i, label %.preheader.i.i, label %.lr.ph.i.i

.preheader.i.i:                                   ; preds = %25, %_ZNK4decl13get_family_idEv.exit.thread
  %.not2737.i.i = icmp eq i32 %13, 0
  br i1 %.not2737.i.i, label %_ZNK14core_hashtableI14obj_hash_entryI9func_declE12obj_ptr_hashIS1_E6ptr_eqIS1_EE8containsERKPS1_.exit, label %.lr.ph39.i.i

.lr.ph.i.i:                                       ; preds = %_ZNK4decl13get_family_idEv.exit.thread, %25
  %.036.i.i = phi ptr [ %26, %25 ], [ %16, %_ZNK4decl13get_family_idEv.exit.thread ]
  %19 = load ptr, ptr %.036.i.i, align 8, !tbaa !3
  %magicptr30.i.i = ptrtoint ptr %19 to i64
  switch i64 %magicptr30.i.i, label %20 [
    i64 0, label %_ZNK14core_hashtableI14obj_hash_entryI9func_declE12obj_ptr_hashIS1_E6ptr_eqIS1_EE8containsERKPS1_.exit
    i64 1, label %25
  ]

20:                                               ; preds = %.lr.ph.i.i
  %21 = getelementptr inbounds nuw i8, ptr %19, i64 12
  %22 = load i32, ptr %21, align 4, !tbaa !55
  %23 = icmp eq i32 %22, %9
  %24 = icmp eq ptr %19, %1
  %or.cond.i.i = and i1 %24, %23
  br i1 %or.cond.i.i, label %_ZNK14core_hashtableI14obj_hash_entryI9func_declE12obj_ptr_hashIS1_E6ptr_eqIS1_EE8containsERKPS1_.exit, label %25

25:                                               ; preds = %20, %.lr.ph.i.i
  %26 = getelementptr inbounds nuw i8, ptr %.036.i.i, i64 8
  %.not.i.i = icmp eq ptr %26, %18
  br i1 %.not.i.i, label %.preheader.i.i, label %.lr.ph.i.i, !llvm.loop !78

.lr.ph39.i.i:                                     ; preds = %.preheader.i.i, %33
  %.138.i.i = phi ptr [ %34, %33 ], [ %14, %.preheader.i.i ]
  %27 = load ptr, ptr %.138.i.i, align 8, !tbaa !3
  %magicptr32.i.i = ptrtoint ptr %27 to i64
  switch i64 %magicptr32.i.i, label %28 [
    i64 0, label %_ZNK14core_hashtableI14obj_hash_entryI9func_declE12obj_ptr_hashIS1_E6ptr_eqIS1_EE8containsERKPS1_.exit
    i64 1, label %33
  ]

28:                                               ; preds = %.lr.ph39.i.i
  %29 = getelementptr inbounds nuw i8, ptr %27, i64 12
  %30 = load i32, ptr %29, align 4, !tbaa !55
  %31 = icmp eq i32 %30, %9
  %32 = icmp eq ptr %27, %1
  %or.cond31.i.i = and i1 %32, %31
  br i1 %or.cond31.i.i, label %_ZNK14core_hashtableI14obj_hash_entryI9func_declE12obj_ptr_hashIS1_E6ptr_eqIS1_EE8containsERKPS1_.exit, label %33

33:                                               ; preds = %28, %.lr.ph39.i.i
  %34 = getelementptr inbounds nuw i8, ptr %.138.i.i, i64 8
  %.not27.i.i = icmp eq ptr %34, %16
  br i1 %.not27.i.i, label %_ZNK14core_hashtableI14obj_hash_entryI9func_declE12obj_ptr_hashIS1_E6ptr_eqIS1_EE8containsERKPS1_.exit, label %.lr.ph39.i.i, !llvm.loop !79

_ZNK14core_hashtableI14obj_hash_entryI9func_declE12obj_ptr_hashIS1_E6ptr_eqIS1_EE8containsERKPS1_.exit: ; preds = %20, %.lr.ph.i.i, %33, %28, %.lr.ph39.i.i, %.preheader.i.i, %_ZNK4decl13get_family_idEv.exit
  %35 = phi i1 [ true, %_ZNK4decl13get_family_idEv.exit ], [ false, %.preheader.i.i ], [ false, %33 ], [ true, %28 ], [ false, %.lr.ph39.i.i ], [ false, %.lr.ph.i.i ], [ true, %20 ]
  ret i1 %35
}